target datalayout = "e-m:e-p270:32:32-p271:32:32-p272:64:64-i64:64-i128:128-f80:128-n8:16:32:64-S128"
target triple = "x86_64-pc-linux-gnu"

%struct.RTMPPacket = type { i32, i32, i32, i32, i32, ptr, i32, i32, i32 }

; Function Attrs: nounwind uwtable
define i32 @ff_rtmp_packet_create(ptr noundef %0, i32 noundef %1, i32 noundef %2, i32 noundef %3, i32 noundef %4) #0 {
  %6 = alloca i32, align 4
  %7 = alloca ptr, align 8
  %8 = alloca i32, align 4
  %9 = alloca i32, align 4
  %10 = alloca i32, align 4
  %11 = alloca i32, align 4
  store ptr %0, ptr %7, align 8, !tbaa !30
  store i32 %1, ptr %8, align 4, !tbaa !10
  store i32 %2, ptr %9, align 4, !tbaa !10
  store i32 %3, ptr %10, align 4, !tbaa !10
  store i32 %4, ptr %11, align 4, !tbaa !10
  %12 = load i32, ptr %11, align 4, !tbaa !10
  %13 = icmp ne i32 %12, 0
  br i1 %13, label %14, label %26

14:                                               ; preds = %5
  %15 = load i32, ptr %11, align 4, !tbaa !10
  %16 = sext i32 %15 to i64
  %17 = call ptr @av_realloc(ptr noundef null, i64 noundef %16)
  %18 = load ptr, ptr %7, align 8, !tbaa !30
  %19 = getelementptr inbounds nuw %struct.RTMPPacket, ptr %18, i32 0, i32 5
  store ptr %17, ptr %19, align 8, !tbaa !42
  %20 = load ptr, ptr %7, align 8, !tbaa !30
  %21 = getelementptr inbounds nuw %struct.RTMPPacket, ptr %20, i32 0, i32 5
  %22 = load ptr, ptr %21, align 8, !tbaa !42
  %23 = icmp ne ptr %22, null
  br i1 %23, label %25, label %24

24:                                               ; preds = %14
  store i32 -12, ptr %6, align 4
  br label %43

25:                                               ; preds = %14
  br label %26

26:                                               ; preds = %25, %5
  %27 = load i32, ptr %11, align 4, !tbaa !10
  %28 = load ptr, ptr %7, align 8, !tbaa !30
  %29 = getelementptr inbounds nuw %struct.RTMPPacket, ptr %28, i32 0, i32 6
  store i32 %27, ptr %29, align 8, !tbaa !34
  %30 = load i32, ptr %8, align 4, !tbaa !10
  %31 = load ptr, ptr %7, align 8, !tbaa !30
  %32 = getelementptr inbounds nuw %struct.RTMPPacket, ptr %31, i32 0, i32 0
  store i32 %30, ptr %32, align 8, !tbaa !43
  %33 = load i32, ptr %9, align 4, !tbaa !10
  %34 = load ptr, ptr %7, align 8, !tbaa !30
  %35 = getelementptr inbounds nuw %struct.RTMPPacket, ptr %34, i32 0, i32 1
  store i32 %33, ptr %35, align 4, !tbaa !36
  %36 = load i32, ptr %10, align 4, !tbaa !10
  %37 = load ptr, ptr %7, align 8, !tbaa !30
  %38 = getelementptr inbounds nuw %struct.RTMPPacket, ptr %37, i32 0, i32 2
  store i32 %36, ptr %38, align 8, !tbaa !39
  %39 = load ptr, ptr %7, align 8, !tbaa !30
  %40 = getelementptr inbounds nuw %struct.RTMPPacket, ptr %39, i32 0, i32 4
  store i32 0, ptr %40, align 8, !tbaa !37
  %41 = load ptr, ptr %7, align 8, !tbaa !30
  %42 = getelementptr inbounds nuw %struct.RTMPPacket, ptr %41, i32 0, i32 3
  store i32 0, ptr %42, align 4, !tbaa !38
  store i32 0, ptr %6, align 4
  br label %43

43:                                               ; preds = %26, %24
  %44 = load i32, ptr %6, align 4
  ret i32 %44
}