; Function Attrs: nounwind uwtable
define range(i32 -12, 1) i32 @ff_rtmp_packet_create(ptr noundef writeonly captures(none) %0, i32 noundef %1, i32 noundef %2, i32 noundef %3, i32 noundef %4) local_unnamed_addr #5 {
  %.not = icmp eq i32 %4, 0
  br i1 %.not, label %10, label %6

6:                                                ; preds = %5
  %7 = sext i32 %4 to i64
  %8 = tail call ptr @av_realloc(ptr noundef null, i64 noundef %7) #16
  %9 = getelementptr inbounds nuw i8, ptr %0, i64 24
  store ptr %8, ptr %9, align 8, !tbaa !26
  %.not15 = icmp eq ptr %8, null
  br i1 %.not15, label %16, label %10

10:                                               ; preds = %6, %5
  %11 = getelementptr inbounds nuw i8, ptr %0, i64 32
  store i32 %4, ptr %11, align 8, !tbaa !19
  store i32 %1, ptr %0, align 8, !tbaa !27
  %12 = getelementptr inbounds nuw i8, ptr %0, i64 4
  store i32 %2, ptr %12, align 4, !tbaa !21
  %13 = getelementptr inbounds nuw i8, ptr %0, i64 8
  store i32 %3, ptr %13, align 8, !tbaa !24
  %14 = getelementptr inbounds nuw i8, ptr %0, i64 16
  store i32 0, ptr %14, align 8, !tbaa !22
  %15 = getelementptr inbounds nuw i8, ptr %0, i64 12
  store i32 0, ptr %15, align 4, !tbaa !23
  br label %16

16:                                               ; preds = %6, %10
  %.0 = phi i32 [ 0, %10 ], [ -12, %6 ]
  ret i32 %.0
}